; Function Attrs: mustprogress nounwind uwtable
define dso_local void @_ZNK4llvm4Loop9setLoopIDEPNS_6MDNodeE(ptr noundef nonnull align 8 dereferenceable(152) %0, ptr noundef %1) local_unnamed_addr #0 align 2 {
  %3 = alloca %"class.llvm::SmallVector", align 8
  %4 = getelementptr inbounds i8, ptr %3, i64 16
  call void @_ZN4llvm15SmallVectorBaseIjEC2EPvm(ptr noundef nonnull align 8 dereferenceable(16) %3, ptr noundef nonnull %4, i64 noundef 4) #19
  call void @_ZNK4llvm8LoopBaseINS_10BasicBlockENS_4LoopEE14getLoopLatchesERNS_15SmallVectorImplIPS1_EE(ptr noundef nonnull align 8 dereferenceable(152) %0, ptr noundef nonnull align 8 dereferenceable(16) %3)
  %5 = load ptr, ptr %3, align 8
  %6 = call noundef i64 @_ZNK4llvm15SmallVectorBaseIjE4sizeEv(ptr noundef nonnull align 8 dereferenceable(16) %3) #19
  %7 = getelementptr inbounds ptr, ptr %5, i64 %6
  %.not9 = icmp eq i64 %6, 0
  br i1 %.not9, label %._crit_edge, label %_ZN4llvm10BasicBlock13getTerminatorEv.exit

_ZN4llvm10BasicBlock13getTerminatorEv.exit:       ; preds = %2, %_ZN4llvm10BasicBlock13getTerminatorEv.exit
  %.010 = phi ptr [ %17, %_ZN4llvm10BasicBlock13getTerminatorEv.exit ], [ %5, %2 ]
  %8 = load ptr, ptr %.010, align 8
  %9 = getelementptr inbounds nuw i8, ptr %8, i64 48
  %10 = load ptr, ptr %9, align 8
  %11 = icmp ne ptr %9, %10
  call void @llvm.assume(i1 %11)
  %12 = getelementptr inbounds i8, ptr %10, i64 -24
  %13 = load i8, ptr %12, align 8
  %14 = zext i8 %13 to i32
  %15 = add nsw i32 %14, -30
  %16 = icmp ult i32 %15, 11
  %spec.select.i.i = select i1 %16, ptr %12, ptr null
  call void @_ZN4llvm11Instruction11setMetadataEjPNS_6MDNodeE(ptr noundef nonnull align 8 dereferenceable(72) %spec.select.i.i, i32 noundef 18, ptr noundef %1) #19
  %17 = getelementptr inbounds i8, ptr %.010, i64 8
  %.not = icmp eq ptr %17, %7
  br i1 %.not, label %._crit_edge, label %_ZN4llvm10BasicBlock13getTerminatorEv.exit

._crit_edge:                                      ; preds = %_ZN4llvm10BasicBlock13getTerminatorEv.exit, %2
  %18 = call noundef i64 @_ZNK4llvm15SmallVectorBaseIjE4sizeEv(ptr noundef nonnull align 8 dereferenceable(16) %3) #19
  %19 = load ptr, ptr %3, align 8
  %20 = icmp eq ptr %19, %4
  br i1 %20, label %_ZN4llvm11SmallVectorIPNS_10BasicBlockELj4EED2Ev.exit, label %21

21:                                               ; preds = %._crit_edge
  call void @free(ptr noundef %19) #19
  br label %_ZN4llvm11SmallVectorIPNS_10BasicBlockELj4EED2Ev.exit

_ZN4llvm11SmallVectorIPNS_10BasicBlockELj4EED2Ev.exit: ; preds = %._crit_edge, %21
  ret void
}